; Function Attrs: nounwind uwtable
define zeroext range(i8 0, 2) i8 @l_Array_anyMUnsafe_any___at_Lean_isReservedName___spec__1(ptr noundef %0, ptr noundef %1, ptr noundef readonly captures(none) %2, i64 noundef %3, i64 noundef %4) local_unnamed_addr #1 {
  %.not57 = icmp eq i64 %3, %4
  br i1 %.not57, label %.._crit_edge_crit_edge, label %.lr.ph

.._crit_edge_crit_edge:                           ; preds = %5
  %.pre = ptrtoint ptr %1 to i64
  %.pre59 = and i64 %.pre, 1
  br label %._crit_edge

.lr.ph:                                           ; preds = %5
  %6 = getelementptr inbounds nuw i8, ptr %2, i64 24
  %7 = ptrtoint ptr %1 to i64
  %8 = and i64 %7, 1
  %.not54 = icmp eq i64 %8, 0
  %9 = ptrtoint ptr %0 to i64
  %10 = and i64 %9, 1
  %.not55 = icmp eq i64 %10, 0
  br label %13

11:                                               ; preds = %lean_dec.exit32
  %12 = add i64 %.02358, 1
  %.not = icmp eq i64 %12, %4
  br i1 %.not, label %._crit_edge, label %13

13:                                               ; preds = %.lr.ph, %11
  %.02358 = phi i64 [ %3, %.lr.ph ], [ %12, %11 ]
  %14 = getelementptr inbounds nuw [0 x ptr], ptr %6, i64 0, i64 %.02358
  %15 = load ptr, ptr %14, align 8, !tbaa !9
  %16 = ptrtoint ptr %15 to i64
  %17 = and i64 %16, 1
  %.not.i41 = icmp eq i64 %17, 0
  br i1 %.not.i41, label %18, label %lean_array_uget.exit

18:                                               ; preds = %13
  %.val.i.i = load i32, ptr %15, align 4, !tbaa !4
  %19 = icmp sgt i32 %.val.i.i, 0
  br i1 %19, label %20, label %22, !prof !11

20:                                               ; preds = %18
  %21 = add nuw i32 %.val.i.i, 1
  store i32 %21, ptr %15, align 4, !tbaa !4
  br label %lean_array_uget.exit

22:                                               ; preds = %18
  %.not.i.i = icmp eq i32 %.val.i.i, 0
  br i1 %.not.i.i, label %lean_array_uget.exit, label %23

23:                                               ; preds = %22
  tail call void @lean_inc_ref_cold(ptr noundef nonnull %15) #6
  br label %lean_array_uget.exit

lean_array_uget.exit:                             ; preds = %13, %20, %22, %23
  br i1 %.not54, label %24, label %lean_inc.exit28

24:                                               ; preds = %lean_array_uget.exit
  %.val.i = load i32, ptr %1, align 4, !tbaa !4
  %25 = icmp sgt i32 %.val.i, 0
  br i1 %25, label %26, label %28, !prof !11

26:                                               ; preds = %24
  %27 = add nuw i32 %.val.i, 1
  store i32 %27, ptr %1, align 4, !tbaa !4
  br label %lean_inc.exit28

28:                                               ; preds = %24
  %.not.i42 = icmp eq i32 %.val.i, 0
  br i1 %.not.i42, label %lean_inc.exit28, label %29

29:                                               ; preds = %28
  tail call void @lean_inc_ref_cold(ptr noundef nonnull %1) #6
  br label %lean_inc.exit28

lean_inc.exit28:                                  ; preds = %29, %28, %26, %lean_array_uget.exit
  br i1 %.not55, label %30, label %lean_inc.exit

30:                                               ; preds = %lean_inc.exit28
  %.val.i43 = load i32, ptr %0, align 4, !tbaa !4
  %31 = icmp sgt i32 %.val.i43, 0
  br i1 %31, label %32, label %34, !prof !11

32:                                               ; preds = %30
  %33 = add nuw i32 %.val.i43, 1
  store i32 %33, ptr %0, align 4, !tbaa !4
  br label %lean_inc.exit

34:                                               ; preds = %30
  %.not.i44 = icmp eq i32 %.val.i43, 0
  br i1 %.not.i44, label %lean_inc.exit, label %35

35:                                               ; preds = %34
  tail call void @lean_inc_ref_cold(ptr noundef nonnull %0) #6
  br label %lean_inc.exit

lean_inc.exit:                                    ; preds = %35, %34, %32, %lean_inc.exit28
  %36 = tail call ptr @lean_apply_2(ptr noundef %15, ptr noundef %0, ptr noundef %1) #6
  %37 = ptrtoint ptr %36 to i64
  %38 = and i64 %37, 1
  %.not56 = icmp eq i64 %38, 0
  br i1 %.not56, label %39, label %lean_dec.exit32

39:                                               ; preds = %lean_inc.exit
  %40 = load i32, ptr %36, align 4, !tbaa !4
  %41 = icmp sgt i32 %40, 1
  br i1 %41, label %42, label %44, !prof !11

42:                                               ; preds = %39
  %43 = add nsw i32 %40, -1
  store i32 %43, ptr %36, align 4, !tbaa !4
  br label %lean_dec.exit32

44:                                               ; preds = %39
  %.not.i = icmp eq i32 %40, 0
  br i1 %.not.i, label %lean_dec.exit32, label %45

45:                                               ; preds = %44
  tail call void @lean_dec_ref_cold(ptr noundef nonnull %36) #6
  br label %lean_dec.exit32

lean_dec.exit32:                                  ; preds = %45, %44, %42, %lean_inc.exit
  %46 = and i64 %37, 510
  %47 = icmp eq i64 %46, 0
  br i1 %47, label %11, label %48

48:                                               ; preds = %lean_dec.exit32
  br i1 %.not54, label %49, label %lean_dec.exit31

49:                                               ; preds = %48
  %50 = load i32, ptr %1, align 4, !tbaa !4
  %51 = icmp sgt i32 %50, 1
  br i1 %51, label %52, label %54, !prof !11

52:                                               ; preds = %49
  %53 = add nsw i32 %50, -1
  store i32 %53, ptr %1, align 4, !tbaa !4
  br label %lean_dec.exit31

54:                                               ; preds = %49
  %.not.i33 = icmp eq i32 %50, 0
  br i1 %.not.i33, label %lean_dec.exit31, label %55

55:                                               ; preds = %54
  tail call void @lean_dec_ref_cold(ptr noundef nonnull %1) #6
  br label %lean_dec.exit31

lean_dec.exit31:                                  ; preds = %55, %54, %52, %48
  br i1 %.not55, label %56, label %79

56:                                               ; preds = %lean_dec.exit31
  %57 = load i32, ptr %0, align 4, !tbaa !4
  %58 = icmp sgt i32 %57, 1
  br i1 %58, label %59, label %61, !prof !11

59:                                               ; preds = %56
  %60 = add nsw i32 %57, -1
  store i32 %60, ptr %0, align 4, !tbaa !4
  br label %79

61:                                               ; preds = %56
  %.not.i35 = icmp eq i32 %57, 0
  br i1 %.not.i35, label %79, label %62

62:                                               ; preds = %61
  tail call void @lean_dec_ref_cold(ptr noundef nonnull %0) #6
  br label %79

._crit_edge:                                      ; preds = %11, %.._crit_edge_crit_edge
  %.pre-phi60 = phi i64 [ %.pre59, %.._crit_edge_crit_edge ], [ %8, %11 ]
  %.not52 = icmp eq i64 %.pre-phi60, 0
  br i1 %.not52, label %63, label %lean_dec.exit29

63:                                               ; preds = %._crit_edge
  %64 = load i32, ptr %1, align 4, !tbaa !4
  %65 = icmp sgt i32 %64, 1
  br i1 %65, label %66, label %68, !prof !11

66:                                               ; preds = %63
  %67 = add nsw i32 %64, -1
  store i32 %67, ptr %1, align 4, !tbaa !4
  br label %lean_dec.exit29

68:                                               ; preds = %63
  %.not.i37 = icmp eq i32 %64, 0
  br i1 %.not.i37, label %lean_dec.exit29, label %69

69:                                               ; preds = %68
  tail call void @lean_dec_ref_cold(ptr noundef nonnull %1) #6
  br label %lean_dec.exit29

lean_dec.exit29:                                  ; preds = %69, %68, %66, %._crit_edge
  %70 = ptrtoint ptr %0 to i64
  %71 = and i64 %70, 1
  %.not53 = icmp eq i64 %71, 0
  br i1 %.not53, label %72, label %79

72:                                               ; preds = %lean_dec.exit29
  %73 = load i32, ptr %0, align 4, !tbaa !4
  %74 = icmp sgt i32 %73, 1
  br i1 %74, label %75, label %77, !prof !11

75:                                               ; preds = %72
  %76 = add nsw i32 %73, -1
  store i32 %76, ptr %0, align 4, !tbaa !4
  br label %79

77:                                               ; preds = %72
  %.not.i39 = icmp eq i32 %73, 0
  br i1 %.not.i39, label %79, label %78

78:                                               ; preds = %77
  tail call void @lean_dec_ref_cold(ptr noundef nonnull %0) #6
  br label %79

79:                                               ; preds = %62, %61, %59, %lean_dec.exit31, %78, %77, %75, %lean_dec.exit29
  %.2.ph = phi i8 [ 0, %lean_dec.exit29 ], [ 0, %75 ], [ 0, %77 ], [ 0, %78 ], [ 1, %lean_dec.exit31 ], [ 1, %59 ], [ 1, %61 ], [ 1, %62 ]
  ret i8 %.2.ph
}